; ModuleID = 'source-C-CXX/49/65.c'
source_filename = "source-C-CXX/49/65.c"
target datalayout = "e-m:e-p270:32:32-p271:32:32-p272:64:64-i64:64-f80:128-n8:16:32:64-S128"
target triple = "x86_64-pc-linux-gnu"

@.str = private unnamed_addr constant [3 x i8] c"%d\00", align 1
@str = private unnamed_addr constant [3 x i8] c"12\00", align 1
@str.13 = private unnamed_addr constant [3 x i8] c"11\00", align 1
@str.14 = private unnamed_addr constant [3 x i8] c"10\00", align 1
@str.15 = private unnamed_addr constant [2 x i8] c"9\00", align 1
@str.16 = private unnamed_addr constant [2 x i8] c"8\00", align 1
@str.17 = private unnamed_addr constant [2 x i8] c"7\00", align 1
@str.18 = private unnamed_addr constant [2 x i8] c"6\00", align 1
@str.19 = private unnamed_addr constant [2 x i8] c"5\00", align 1
@str.20 = private unnamed_addr constant [2 x i8] c"4\00", align 1
@str.21 = private unnamed_addr constant [2 x i8] c"3\00", align 1
@str.22 = private unnamed_addr constant [2 x i8] c"2\00", align 1
@str.23 = private unnamed_addr constant [2 x i8] c"1\00", align 1

; Function Attrs: nofree nounwind sspstrong uwtable
define dso_local i32 @main() local_unnamed_addr #0 {
  %1 = alloca i32, align 4
  %2 = bitcast i32* %1 to i8*
  call void @llvm.lifetime.start.p0i8(i64 4, i8* nonnull %2) #4
  %3 = call i32 (i8*, ...) @__isoc99_scanf(i8* getelementptr inbounds ([3 x i8], [3 x i8]* @.str, i64 0, i64 0), i32* nonnull %1)
  %4 = load i32, i32* %1, align 4, !tbaa !5
  switch i32 %4, label %8 [
    i32 7, label %5
    i32 0, label %5
  ]

5:                                                ; preds = %0, %0
  %6 = call i32 @puts(i8* nonnull dereferenceable(1) getelementptr inbounds ([2 x i8], [2 x i8]* @str.23, i64 0, i64 0))
  %7 = load i32, i32* %1, align 4, !tbaa !5
  br label %8

8:                                                ; preds = %0, %5
  %9 = phi i32 [ %4, %0 ], [ %7, %5 ]
  switch i32 %9, label %13 [
    i32 11, label %10
    i32 4, label %10
  ]

10:                                               ; preds = %8, %8
  %11 = call i32 @puts(i8* nonnull dereferenceable(1) getelementptr inbounds ([2 x i8], [2 x i8]* @str.22, i64 0, i64 0))
  %12 = load i32, i32* %1, align 4, !tbaa !5
  br label %13

13:                                               ; preds = %8, %10
  %14 = phi i32 [ %9, %8 ], [ %12, %10 ]
  switch i32 %14, label %18 [
    i32 11, label %15
    i32 4, label %15
  ]

15:                                               ; preds = %13, %13
  %16 = call i32 @puts(i8* nonnull dereferenceable(1) getelementptr inbounds ([2 x i8], [2 x i8]* @str.21, i64 0, i64 0))
  %17 = load i32, i32* %1, align 4, !tbaa !5
  br label %18

18:                                               ; preds = %13, %15
  %19 = phi i32 [ %14, %13 ], [ %17, %15 ]
  switch i32 %19, label %23 [
    i32 8, label %20
    i32 1, label %20
  ]

20:                                               ; preds = %18, %18
  %21 = call i32 @puts(i8* nonnull dereferenceable(1) getelementptr inbounds ([2 x i8], [2 x i8]* @str.20, i64 0, i64 0))
  %22 = load i32, i32* %1, align 4, !tbaa !5
  br label %23

23:                                               ; preds = %18, %20
  %24 = phi i32 [ %19, %18 ], [ %22, %20 ]
  switch i32 %24, label %28 [
    i32 13, label %25
    i32 6, label %25
  ]

25:                                               ; preds = %23, %23
  %26 = call i32 @puts(i8* nonnull dereferenceable(1) getelementptr inbounds ([2 x i8], [2 x i8]* @str.19, i64 0, i64 0))
  %27 = load i32, i32* %1, align 4, !tbaa !5
  br label %28

28:                                               ; preds = %23, %25
  %29 = phi i32 [ %24, %23 ], [ %27, %25 ]
  switch i32 %29, label %33 [
    i32 10, label %30
    i32 3, label %30
  ]

30:                                               ; preds = %28, %28
  %31 = call i32 @puts(i8* nonnull dereferenceable(1) getelementptr inbounds ([2 x i8], [2 x i8]* @str.18, i64 0, i64 0))
  %32 = load i32, i32* %1, align 4, !tbaa !5
  br label %33

33:                                               ; preds = %28, %30
  %34 = phi i32 [ %29, %28 ], [ %32, %30 ]
  switch i32 %34, label %38 [
    i32 8, label %35
    i32 1, label %35
  ]

35:                                               ; preds = %33, %33
  %36 = call i32 @puts(i8* nonnull dereferenceable(1) getelementptr inbounds ([2 x i8], [2 x i8]* @str.17, i64 0, i64 0))
  %37 = load i32, i32* %1, align 4, !tbaa !5
  br label %38

38:                                               ; preds = %33, %35
  %39 = phi i32 [ %34, %33 ], [ %37, %35 ]
  switch i32 %39, label %43 [
    i32 12, label %40
    i32 5, label %40
  ]

40:                                               ; preds = %38, %38
  %41 = call i32 @puts(i8* nonnull dereferenceable(1) getelementptr inbounds ([2 x i8], [2 x i8]* @str.16, i64 0, i64 0))
  %42 = load i32, i32* %1, align 4, !tbaa !5
  br label %43

43:                                               ; preds = %38, %40
  %44 = phi i32 [ %39, %38 ], [ %42, %40 ]
  switch i32 %44, label %48 [
    i32 9, label %45
    i32 2, label %45
  ]

45:                                               ; preds = %43, %43
  %46 = call i32 @puts(i8* nonnull dereferenceable(1) getelementptr inbounds ([2 x i8], [2 x i8]* @str.15, i64 0, i64 0))
  %47 = load i32, i32* %1, align 4, !tbaa !5
  br label %48

48:                                               ; preds = %43, %45
  %49 = phi i32 [ %44, %43 ], [ %47, %45 ]
  switch i32 %49, label %53 [
    i32 7, label %50
    i32 0, label %50
  ]

50:                                               ; preds = %48, %48
  %51 = call i32 @puts(i8* nonnull dereferenceable(1) getelementptr inbounds ([3 x i8], [3 x i8]* @str.14, i64 0, i64 0))
  %52 = load i32, i32* %1, align 4, !tbaa !5
  br label %53

53:                                               ; preds = %48, %50
  %54 = phi i32 [ %49, %48 ], [ %52, %50 ]
  switch i32 %54, label %58 [
    i32 11, label %55
    i32 4, label %55
  ]

55:                                               ; preds = %53, %53
  %56 = call i32 @puts(i8* nonnull dereferenceable(1) getelementptr inbounds ([3 x i8], [3 x i8]* @str.13, i64 0, i64 0))
  %57 = load i32, i32* %1, align 4, !tbaa !5
  br label %58

58:                                               ; preds = %53, %55
  %59 = phi i32 [ %54, %53 ], [ %57, %55 ]
  switch i32 %59, label %62 [
    i32 9, label %60
    i32 2, label %60
  ]

60:                                               ; preds = %58, %58
  %61 = call i32 @puts(i8* nonnull dereferenceable(1) getelementptr inbounds ([3 x i8], [3 x i8]* @str, i64 0, i64 0))
  br label %62

62:                                               ; preds = %58, %60
  call void @llvm.lifetime.end.p0i8(i64 4, i8* nonnull %2) #4
  ret i32 0
}

; Function Attrs: argmemonly mustprogress nofree nosync nounwind willreturn
declare void @llvm.lifetime.start.p0i8(i64 immarg, i8* nocapture) #1

; Function Attrs: nofree nounwind
declare noundef i32 @__isoc99_scanf(i8* nocapture noundef readonly, ...) local_unnamed_addr #2

; Function Attrs: argmemonly mustprogress nofree nosync nounwind willreturn
declare void @llvm.lifetime.end.p0i8(i64 immarg, i8* nocapture) #1

; Function Attrs: nofree nounwind
declare noundef i32 @puts(i8* nocapture noundef readonly) local_unnamed_addr #3


!llvm.module.flags = !{!0, !1, !2, !3}
!llvm.ident = !{!4}

!0 = !{i32 1, !"wchar_size", i32 4}
!1 = !{i32 7, !"PIC Level", i32 2}
!2 = !{i32 7, !"PIE Level", i32 2}
!3 = !{i32 7, !"uwtable", i32 1}
!4 = !{!"clang version 13.0.0"}
!5 = !{!6, !6, i64 0}
!6 = !{!"int", !7, i64 0}
!7 = !{!"omnipotent char", !8, i64 0}
!8 = !{!"Simple C/C++ TBAA"}
